target datalayout = "e-m:e-p270:32:32-p271:32:32-p272:64:64-i64:64-i128:128-f80:128-n8:16:32:64-S128"
target triple = "x86_64-pc-linux-gnu"

; Function Attrs: nounwind uwtable
define internal void @SDL_SetSystemTimerResolutionMS(i32 noundef %0) #0 {
  %2 = alloca i32, align 4
  store i32 %0, ptr %2, align 4
  ret void
}

; Function Attrs: nounwind uwtable
define internal void @SDL_TimerResolutionChanged(ptr noundef %0, ptr noundef %1, ptr noundef %2, ptr noundef %3) #0 {
  %5 = alloca ptr, align 8
  %6 = alloca ptr, align 8
  %7 = alloca ptr, align 8
  %8 = alloca ptr, align 8
  %9 = alloca i32, align 4
  store ptr %0, ptr %5, align 8
  store ptr %1, ptr %6, align 8
  store ptr %2, ptr %7, align 8
  store ptr %3, ptr %8, align 8
  call void @llvm.lifetime.start.p0(i64 4, ptr %9) #3
  %10 = load ptr, ptr %8, align 8
  %11 = icmp ne ptr %10, null
  br i1 %11, label %12, label %20

12:                                               ; preds = %4
  %13 = load ptr, ptr %8, align 8
  %14 = load i8, ptr %13, align 1
  %15 = sext i8 %14 to i32
  %16 = icmp ne i32 %15, 0
  br i1 %16, label %17, label %20

17:                                               ; preds = %12
  %18 = load ptr, ptr %8, align 8
  %19 = call i32 @SDL_atoi_REAL(ptr noundef %18)
  store i32 %19, ptr %9, align 4
  br label %21

20:                                               ; preds = %12, %4
  store i32 1, ptr %9, align 4
  br label %21

21:                                               ; preds = %20, %17
  %22 = load i32, ptr %9, align 4
  %23 = icmp ne i32 %22, 0
  br i1 %23, label %28, label %24

24:                                               ; preds = %21
  %25 = load ptr, ptr %7, align 8
  %26 = load ptr, ptr %8, align 8
  %27 = icmp ne ptr %25, %26
  br i1 %27, label %28, label %30

28:                                               ; preds = %24, %21
  %29 = load i32, ptr %9, align 4
  call void @SDL_SetSystemTimerResolutionMS(i32 noundef %29)
  br label %30

30:                                               ; preds = %28, %24
  call void @llvm.lifetime.end.p0(i64 4, ptr %9) #3
  ret void
}