; Function Attrs: nounwind uwtable
define internal void @SDL_TimerResolutionChanged(ptr readnone captures(none) %0, ptr readnone captures(none) %1, ptr readnone captures(none) %2, ptr noundef %3) #0 {
  %.not = icmp eq ptr %3, null
  br i1 %.not, label %.split, label %5

5:                                                ; preds = %4
  %6 = load i8, ptr %3, align 1
  %.not8 = icmp eq i8 %6, 0
  br i1 %.not8, label %.split, label %7

7:                                                ; preds = %5
  %8 = tail call i32 @SDL_atoi_REAL(ptr noundef nonnull %3) #3
  br label %.split

.split:                                           ; preds = %7, %4, %5
  ret void
}